; Function Attrs: mustprogress uwtable
define void @_ZNK10open_spiel5maedn10MaednState14ActionToStringB5cxx11Eil(ptr dead_on_unwind noalias writable sret(%"class.std::__cxx11::basic_string") align 8 %0, ptr nonnull readnone align 8 captures(none) %1, i32 noundef %2, i64 noundef %3) unnamed_addr #5 align 2 {
  %5 = alloca [5 x %"class.absl::debian2::string_view"], align 8
  %6 = alloca %"class.absl::debian2::AlphaNum", align 8
  %7 = alloca %"class.absl::debian2::AlphaNum", align 8
  %8 = alloca %"class.absl::debian2::AlphaNum", align 8
  %9 = alloca %"class.absl::debian2::AlphaNum", align 8
  %10 = alloca %"class.absl::debian2::AlphaNum", align 8
  %11 = alloca %"class.absl::debian2::AlphaNum", align 8
  %12 = alloca %"class.absl::debian2::AlphaNum", align 8
  %13 = alloca %"class.absl::debian2::AlphaNum", align 8
  %14 = alloca %"class.absl::debian2::AlphaNum", align 8
  %15 = icmp eq i32 %2, -1
  br i1 %15, label %_ZN4absl7debian28AlphaNumC2EPKc.exit, label %44

_ZN4absl7debian28AlphaNumC2EPKc.exit:             ; preds = %4
  %16 = getelementptr inbounds nuw i8, ptr %6, i64 16
  %17 = call noundef ptr @_ZN4absl7debian216numbers_internal15FastIntToBufferElPc(i64 noundef %3, ptr noundef nonnull %16)
  %18 = ptrtoint ptr %17 to i64
  %19 = ptrtoint ptr %16 to i64
  %20 = sub i64 %18, %19
  store ptr %16, ptr %6, align 8
  %21 = icmp sgt i64 %20, -1
  br i1 %21, label %_ZN4absl7debian28AlphaNumC2El.exit, label %22

22:                                               ; preds = %_ZN4absl7debian28AlphaNumC2EPKc.exit
  call void @llvm.trap()
  unreachable

_ZN4absl7debian28AlphaNumC2El.exit:               ; preds = %_ZN4absl7debian28AlphaNumC2EPKc.exit
  %23 = getelementptr inbounds nuw i8, ptr %6, i64 8
  store i64 %20, ptr %23, align 8
  %24 = load ptr, ptr @_ZN10open_spiel5maedn12_GLOBAL__N_120kChanceOutcomeValuesE, align 8
  %25 = getelementptr inbounds i32, ptr %24, i64 %3
  %26 = load i32, ptr %25, align 4
  %27 = getelementptr inbounds nuw i8, ptr %7, i64 16
  %28 = call noundef ptr @_ZN4absl7debian216numbers_internal15FastIntToBufferEiPc(i32 noundef %26, ptr noundef nonnull %27)
  %29 = ptrtoint ptr %28 to i64
  %30 = ptrtoint ptr %27 to i64
  %31 = sub i64 %29, %30
  store ptr %27, ptr %7, align 8
  %32 = icmp sgt i64 %31, -1
  br i1 %32, label %_ZN4absl7debian28AlphaNumC2Ei.exit, label %33

33:                                               ; preds = %_ZN4absl7debian28AlphaNumC2El.exit
  call void @llvm.trap()
  unreachable

_ZN4absl7debian28AlphaNumC2Ei.exit:               ; preds = %_ZN4absl7debian28AlphaNumC2El.exit
  %34 = getelementptr inbounds nuw i8, ptr %7, i64 8
  store i64 %31, ptr %34, align 8
  call void @llvm.lifetime.start.p0(i64 80, ptr nonnull %5)
  store ptr @.str.16, ptr %5, align 8, !noalias !4
  %35 = getelementptr inbounds nuw i8, ptr %5, i64 8
  store i64 15, ptr %35, align 8, !noalias !4
  %36 = getelementptr inbounds nuw i8, ptr %5, i64 16
  %.sroa.0.0.copyload.i5.i = load ptr, ptr %6, align 8, !noalias !4
  %.sroa.2.0.copyload.i7.i = load i64, ptr %23, align 8, !noalias !4
  store ptr %.sroa.0.0.copyload.i5.i, ptr %36, align 8, !noalias !4
  %37 = getelementptr inbounds nuw i8, ptr %5, i64 24
  store i64 %.sroa.2.0.copyload.i7.i, ptr %37, align 8, !noalias !4
  %38 = getelementptr inbounds nuw i8, ptr %5, i64 32
  store ptr @.str.17, ptr %38, align 8, !noalias !4
  %39 = getelementptr inbounds nuw i8, ptr %5, i64 40
  store i64 8, ptr %39, align 8, !noalias !4
  %40 = getelementptr inbounds nuw i8, ptr %5, i64 48
  store ptr %27, ptr %40, align 8, !noalias !4
  %41 = getelementptr inbounds nuw i8, ptr %5, i64 56
  store i64 %31, ptr %41, align 8, !noalias !4
  %42 = getelementptr inbounds nuw i8, ptr %5, i64 64
  store ptr @.str.18, ptr %42, align 8, !noalias !4
  %43 = getelementptr inbounds nuw i8, ptr %5, i64 72
  store i64 1, ptr %43, align 8, !noalias !4
  call void @_ZN4absl7debian216strings_internal9CatPiecesB5cxx11ESt16initializer_listINS0_11string_viewEE(ptr dead_on_unwind writable sret(%"class.std::__cxx11::basic_string") align 8 %0, ptr nonnull %5, i64 5)
  call void @llvm.lifetime.end.p0(i64 80, ptr nonnull %5)
  br label %84

44:                                               ; preds = %4
  switch i64 %3, label %65 [
    i64 1, label %45
    i64 0, label %55
  ]

45:                                               ; preds = %44
  %46 = getelementptr inbounds nuw i8, ptr %8, i64 16
  %47 = call noundef ptr @_ZN4absl7debian216numbers_internal15FastIntToBufferElPc(i64 noundef 1, ptr noundef nonnull %46)
  %48 = ptrtoint ptr %47 to i64
  %49 = ptrtoint ptr %46 to i64
  %50 = sub i64 %48, %49
  store ptr %46, ptr %8, align 8
  %51 = icmp sgt i64 %50, -1
  br i1 %51, label %_ZN4absl7debian28AlphaNumC2El.exit11, label %52

52:                                               ; preds = %45
  call void @llvm.trap()
  unreachable

_ZN4absl7debian28AlphaNumC2El.exit11:             ; preds = %45
  %53 = getelementptr inbounds nuw i8, ptr %8, i64 8
  store i64 %50, ptr %53, align 8
  store ptr @.str.19, ptr %9, align 8
  %54 = getelementptr inbounds nuw i8, ptr %9, i64 8
  store i64 22, ptr %54, align 8
  call void @_ZN4absl7debian26StrCatB5cxx11ERKNS0_8AlphaNumES3_(ptr dead_on_unwind writable sret(%"class.std::__cxx11::basic_string") align 8 %0, ptr noundef nonnull align 8 dereferenceable(48) %8, ptr noundef nonnull align 8 dereferenceable(48) %9)
  br label %84

55:                                               ; preds = %44
  %56 = getelementptr inbounds nuw i8, ptr %10, i64 16
  %57 = call noundef ptr @_ZN4absl7debian216numbers_internal15FastIntToBufferElPc(i64 noundef 0, ptr noundef nonnull %56)
  %58 = ptrtoint ptr %57 to i64
  %59 = ptrtoint ptr %56 to i64
  %60 = sub i64 %58, %59
  store ptr %56, ptr %10, align 8
  %61 = icmp sgt i64 %60, -1
  br i1 %61, label %_ZN4absl7debian28AlphaNumC2El.exit13, label %62

62:                                               ; preds = %55
  call void @llvm.trap()
  unreachable

_ZN4absl7debian28AlphaNumC2El.exit13:             ; preds = %55
  %63 = getelementptr inbounds nuw i8, ptr %10, i64 8
  store i64 %60, ptr %63, align 8
  store ptr @.str.20, ptr %11, align 8
  %64 = getelementptr inbounds nuw i8, ptr %11, i64 8
  store i64 9, ptr %64, align 8
  call void @_ZN4absl7debian26StrCatB5cxx11ERKNS0_8AlphaNumES3_(ptr dead_on_unwind writable sret(%"class.std::__cxx11::basic_string") align 8 %0, ptr noundef nonnull align 8 dereferenceable(48) %10, ptr noundef nonnull align 8 dereferenceable(48) %11)
  br label %84

65:                                               ; preds = %44
  %66 = getelementptr inbounds nuw i8, ptr %12, i64 16
  %67 = call noundef ptr @_ZN4absl7debian216numbers_internal15FastIntToBufferElPc(i64 noundef %3, ptr noundef nonnull %66)
  %68 = ptrtoint ptr %67 to i64
  %69 = ptrtoint ptr %66 to i64
  %70 = sub i64 %68, %69
  store ptr %66, ptr %12, align 8
  %71 = icmp sgt i64 %70, -1
  br i1 %71, label %_ZN4absl7debian28AlphaNumC2El.exit15, label %72

72:                                               ; preds = %65
  call void @llvm.trap()
  unreachable

_ZN4absl7debian28AlphaNumC2El.exit15:             ; preds = %65
  %73 = getelementptr inbounds nuw i8, ptr %12, i64 8
  store i64 %70, ptr %73, align 8
  store ptr @.str.21, ptr %13, align 8
  %74 = getelementptr inbounds nuw i8, ptr %13, i64 8
  store i64 24, ptr %74, align 8
  %75 = add nsw i64 %3, -2
  %76 = getelementptr inbounds nuw i8, ptr %14, i64 16
  %77 = call noundef ptr @_ZN4absl7debian216numbers_internal15FastIntToBufferElPc(i64 noundef %75, ptr noundef nonnull %76)
  %78 = ptrtoint ptr %77 to i64
  %79 = ptrtoint ptr %76 to i64
  %80 = sub i64 %78, %79
  store ptr %76, ptr %14, align 8
  %81 = icmp sgt i64 %80, -1
  br i1 %81, label %_ZN4absl7debian28AlphaNumC2El.exit17, label %82

82:                                               ; preds = %_ZN4absl7debian28AlphaNumC2El.exit15
  call void @llvm.trap()
  unreachable

_ZN4absl7debian28AlphaNumC2El.exit17:             ; preds = %_ZN4absl7debian28AlphaNumC2El.exit15
  %83 = getelementptr inbounds nuw i8, ptr %14, i64 8
  store i64 %80, ptr %83, align 8
  call void @_ZN4absl7debian26StrCatB5cxx11ERKNS0_8AlphaNumES3_S3_(ptr dead_on_unwind writable sret(%"class.std::__cxx11::basic_string") align 8 %0, ptr noundef nonnull align 8 dereferenceable(48) %12, ptr noundef nonnull align 8 dereferenceable(48) %13, ptr noundef nonnull align 8 dereferenceable(48) %14)
  br label %84

84:                                               ; preds = %_ZN4absl7debian28AlphaNumC2El.exit17, %_ZN4absl7debian28AlphaNumC2El.exit13, %_ZN4absl7debian28AlphaNumC2El.exit11, %_ZN4absl7debian28AlphaNumC2Ei.exit
  ret void
}